target datalayout = "e-m:e-p270:32:32-p271:32:32-p272:64:64-i64:64-i128:128-f80:128-n8:16:32:64-S128"
target triple = "x86_64-pc-linux-gnu"

%"class.pxrInternal_v0_24__pxrReserved__::GfMatrix4d" = type { %"class.pxrInternal_v0_24__pxrReserved__::GfMatrixData" }
%"class.pxrInternal_v0_24__pxrReserved__::GfMatrixData" = type { [16 x double] }
%"struct.std::_Vector_base" = type { %"struct.std::_Vector_base<std::vector<double>, std::allocator<std::vector<double>>>::_Vector_impl" }
%"struct.std::_Vector_base<std::vector<double>, std::allocator<std::vector<double>>>::_Vector_impl" = type { %"struct.std::_Vector_base<std::vector<double>, std::allocator<std::vector<double>>>::_Vector_impl_data" }
%"struct.std::_Vector_base<std::vector<double>, std::allocator<std::vector<double>>>::_Vector_impl_data" = type { ptr, ptr, ptr }
%"class.std::vector.1" = type { %"struct.std::_Vector_base.2" }
%"struct.std::_Vector_base.2" = type { %"struct.std::_Vector_base<double, std::allocator<double>>::_Vector_impl" }
%"struct.std::_Vector_base<double, std::allocator<double>>::_Vector_impl" = type { %"struct.std::_Vector_base<double, std::allocator<double>>::_Vector_impl_data" }
%"struct.std::_Vector_base<double, std::allocator<double>>::_Vector_impl_data" = type { ptr, ptr, ptr }

; Function Attrs: mustprogress nounwind uwtable
define linkonce_odr noundef ptr @_ZN32pxrInternal_v0_24__pxrReserved__12GfMatrixDataIdLi4ELi4EEixEi(ptr noundef nonnull align 8 dereferenceable(128) %0, i32 noundef %1) #2 comdat align 2 {
  %3 = alloca ptr, align 8
  %4 = alloca i32, align 4
  store ptr %0, ptr %3, align 8
  store i32 %1, ptr %4, align 4
  %5 = load ptr, ptr %3, align 8
  %6 = getelementptr inbounds nuw %"class.pxrInternal_v0_24__pxrReserved__::GfMatrixData", ptr %5, i32 0, i32 0
  %7 = getelementptr inbounds [16 x double], ptr %6, i64 0, i64 0
  %8 = load i32, ptr %4, align 4
  %9 = mul nsw i32 %8, 4
  %10 = sext i32 %9 to i64
  %11 = getelementptr inbounds double, ptr %7, i64 %10
  ret ptr %11
}

; Function Attrs: mustprogress uwtable
define linkonce_odr noundef nonnull align 8 dereferenceable(128) ptr @_ZN32pxrInternal_v0_24__pxrReserved__10GfMatrix4d3SetEPA4_Kd(ptr noundef nonnull align 8 dereferenceable(128) %0, ptr noundef %1) #0 comdat align 2 {
  %3 = alloca ptr, align 8
  %4 = alloca ptr, align 8
  store ptr %0, ptr %3, align 8
  store ptr %1, ptr %4, align 8
  %5 = load ptr, ptr %3, align 8
  %6 = load ptr, ptr %4, align 8
  %7 = getelementptr inbounds [4 x double], ptr %6, i64 0
  %8 = getelementptr inbounds [4 x double], ptr %7, i64 0, i64 0
  %9 = load double, ptr %8, align 8
  %10 = getelementptr inbounds nuw %"class.pxrInternal_v0_24__pxrReserved__::GfMatrix4d", ptr %5, i32 0, i32 0
  %11 = call noundef ptr @_ZN32pxrInternal_v0_24__pxrReserved__12GfMatrixDataIdLi4ELi4EEixEi(ptr noundef nonnull align 8 dereferenceable(128) %10, i32 noundef 0)
  %12 = getelementptr inbounds double, ptr %11, i64 0
  store double %9, ptr %12, align 8
  %13 = load ptr, ptr %4, align 8
  %14 = getelementptr inbounds [4 x double], ptr %13, i64 0
  %15 = getelementptr inbounds [4 x double], ptr %14, i64 0, i64 1
  %16 = load double, ptr %15, align 8
  %17 = getelementptr inbounds nuw %"class.pxrInternal_v0_24__pxrReserved__::GfMatrix4d", ptr %5, i32 0, i32 0
  %18 = call noundef ptr @_ZN32pxrInternal_v0_24__pxrReserved__12GfMatrixDataIdLi4ELi4EEixEi(ptr noundef nonnull align 8 dereferenceable(128) %17, i32 noundef 0)
  %19 = getelementptr inbounds double, ptr %18, i64 1
  store double %16, ptr %19, align 8
  %20 = load ptr, ptr %4, align 8
  %21 = getelementptr inbounds [4 x double], ptr %20, i64 0
  %22 = getelementptr inbounds [4 x double], ptr %21, i64 0, i64 2
  %23 = load double, ptr %22, align 8
  %24 = getelementptr inbounds nuw %"class.pxrInternal_v0_24__pxrReserved__::GfMatrix4d", ptr %5, i32 0, i32 0
  %25 = call noundef ptr @_ZN32pxrInternal_v0_24__pxrReserved__12GfMatrixDataIdLi4ELi4EEixEi(ptr noundef nonnull align 8 dereferenceable(128) %24, i32 noundef 0)
  %26 = getelementptr inbounds double, ptr %25, i64 2
  store double %23, ptr %26, align 8
  %27 = load ptr, ptr %4, align 8
  %28 = getelementptr inbounds [4 x double], ptr %27, i64 0
  %29 = getelementptr inbounds [4 x double], ptr %28, i64 0, i64 3
  %30 = load double, ptr %29, align 8
  %31 = getelementptr inbounds nuw %"class.pxrInternal_v0_24__pxrReserved__::GfMatrix4d", ptr %5, i32 0, i32 0
  %32 = call noundef ptr @_ZN32pxrInternal_v0_24__pxrReserved__12GfMatrixDataIdLi4ELi4EEixEi(ptr noundef nonnull align 8 dereferenceable(128) %31, i32 noundef 0)
  %33 = getelementptr inbounds double, ptr %32, i64 3
  store double %30, ptr %33, align 8
  %34 = load ptr, ptr %4, align 8
  %35 = getelementptr inbounds [4 x double], ptr %34, i64 1
  %36 = getelementptr inbounds [4 x double], ptr %35, i64 0, i64 0
  %37 = load double, ptr %36, align 8
  %38 = getelementptr inbounds nuw %"class.pxrInternal_v0_24__pxrReserved__::GfMatrix4d", ptr %5, i32 0, i32 0
  %39 = call noundef ptr @_ZN32pxrInternal_v0_24__pxrReserved__12GfMatrixDataIdLi4ELi4EEixEi(ptr noundef nonnull align 8 dereferenceable(128) %38, i32 noundef 1)
  %40 = getelementptr inbounds double, ptr %39, i64 0
  store double %37, ptr %40, align 8
  %41 = load ptr, ptr %4, align 8
  %42 = getelementptr inbounds [4 x double], ptr %41, i64 1
  %43 = getelementptr inbounds [4 x double], ptr %42, i64 0, i64 1
  %44 = load double, ptr %43, align 8
  %45 = getelementptr inbounds nuw %"class.pxrInternal_v0_24__pxrReserved__::GfMatrix4d", ptr %5, i32 0, i32 0
  %46 = call noundef ptr @_ZN32pxrInternal_v0_24__pxrReserved__12GfMatrixDataIdLi4ELi4EEixEi(ptr noundef nonnull align 8 dereferenceable(128) %45, i32 noundef 1)
  %47 = getelementptr inbounds double, ptr %46, i64 1
  store double %44, ptr %47, align 8
  %48 = load ptr, ptr %4, align 8
  %49 = getelementptr inbounds [4 x double], ptr %48, i64 1
  %50 = getelementptr inbounds [4 x double], ptr %49, i64 0, i64 2
  %51 = load double, ptr %50, align 8
  %52 = getelementptr inbounds nuw %"class.pxrInternal_v0_24__pxrReserved__::GfMatrix4d", ptr %5, i32 0, i32 0
  %53 = call noundef ptr @_ZN32pxrInternal_v0_24__pxrReserved__12GfMatrixDataIdLi4ELi4EEixEi(ptr noundef nonnull align 8 dereferenceable(128) %52, i32 noundef 1)
  %54 = getelementptr inbounds double, ptr %53, i64 2
  store double %51, ptr %54, align 8
  %55 = load ptr, ptr %4, align 8
  %56 = getelementptr inbounds [4 x double], ptr %55, i64 1
  %57 = getelementptr inbounds [4 x double], ptr %56, i64 0, i64 3
  %58 = load double, ptr %57, align 8
  %59 = getelementptr inbounds nuw %"class.pxrInternal_v0_24__pxrReserved__::GfMatrix4d", ptr %5, i32 0, i32 0
  %60 = call noundef ptr @_ZN32pxrInternal_v0_24__pxrReserved__12GfMatrixDataIdLi4ELi4EEixEi(ptr noundef nonnull align 8 dereferenceable(128) %59, i32 noundef 1)
  %61 = getelementptr inbounds double, ptr %60, i64 3
  store double %58, ptr %61, align 8
  %62 = load ptr, ptr %4, align 8
  %63 = getelementptr inbounds [4 x double], ptr %62, i64 2
  %64 = getelementptr inbounds [4 x double], ptr %63, i64 0, i64 0
  %65 = load double, ptr %64, align 8
  %66 = getelementptr inbounds nuw %"class.pxrInternal_v0_24__pxrReserved__::GfMatrix4d", ptr %5, i32 0, i32 0
  %67 = call noundef ptr @_ZN32pxrInternal_v0_24__pxrReserved__12GfMatrixDataIdLi4ELi4EEixEi(ptr noundef nonnull align 8 dereferenceable(128) %66, i32 noundef 2)
  %68 = getelementptr inbounds double, ptr %67, i64 0
  store double %65, ptr %68, align 8
  %69 = load ptr, ptr %4, align 8
  %70 = getelementptr inbounds [4 x double], ptr %69, i64 2
  %71 = getelementptr inbounds [4 x double], ptr %70, i64 0, i64 1
  %72 = load double, ptr %71, align 8
  %73 = getelementptr inbounds nuw %"class.pxrInternal_v0_24__pxrReserved__::GfMatrix4d", ptr %5, i32 0, i32 0
  %74 = call noundef ptr @_ZN32pxrInternal_v0_24__pxrReserved__12GfMatrixDataIdLi4ELi4EEixEi(ptr noundef nonnull align 8 dereferenceable(128) %73, i32 noundef 2)
  %75 = getelementptr inbounds double, ptr %74, i64 1
  store double %72, ptr %75, align 8
  %76 = load ptr, ptr %4, align 8
  %77 = getelementptr inbounds [4 x double], ptr %76, i64 2
  %78 = getelementptr inbounds [4 x double], ptr %77, i64 0, i64 2
  %79 = load double, ptr %78, align 8
  %80 = getelementptr inbounds nuw %"class.pxrInternal_v0_24__pxrReserved__::GfMatrix4d", ptr %5, i32 0, i32 0
  %81 = call noundef ptr @_ZN32pxrInternal_v0_24__pxrReserved__12GfMatrixDataIdLi4ELi4EEixEi(ptr noundef nonnull align 8 dereferenceable(128) %80, i32 noundef 2)
  %82 = getelementptr inbounds double, ptr %81, i64 2
  store double %79, ptr %82, align 8
  %83 = load ptr, ptr %4, align 8
  %84 = getelementptr inbounds [4 x double], ptr %83, i64 2
  %85 = getelementptr inbounds [4 x double], ptr %84, i64 0, i64 3
  %86 = load double, ptr %85, align 8
  %87 = getelementptr inbounds nuw %"class.pxrInternal_v0_24__pxrReserved__::GfMatrix4d", ptr %5, i32 0, i32 0
  %88 = call noundef ptr @_ZN32pxrInternal_v0_24__pxrReserved__12GfMatrixDataIdLi4ELi4EEixEi(ptr noundef nonnull align 8 dereferenceable(128) %87, i32 noundef 2)
  %89 = getelementptr inbounds double, ptr %88, i64 3
  store double %86, ptr %89, align 8
  %90 = load ptr, ptr %4, align 8
  %91 = getelementptr inbounds [4 x double], ptr %90, i64 3
  %92 = getelementptr inbounds [4 x double], ptr %91, i64 0, i64 0
  %93 = load double, ptr %92, align 8
  %94 = getelementptr inbounds nuw %"class.pxrInternal_v0_24__pxrReserved__::GfMatrix4d", ptr %5, i32 0, i32 0
  %95 = call noundef ptr @_ZN32pxrInternal_v0_24__pxrReserved__12GfMatrixDataIdLi4ELi4EEixEi(ptr noundef nonnull align 8 dereferenceable(128) %94, i32 noundef 3)
  %96 = getelementptr inbounds double, ptr %95, i64 0
  store double %93, ptr %96, align 8
  %97 = load ptr, ptr %4, align 8
  %98 = getelementptr inbounds [4 x double], ptr %97, i64 3
  %99 = getelementptr inbounds [4 x double], ptr %98, i64 0, i64 1
  %100 = load double, ptr %99, align 8
  %101 = getelementptr inbounds nuw %"class.pxrInternal_v0_24__pxrReserved__::GfMatrix4d", ptr %5, i32 0, i32 0
  %102 = call noundef ptr @_ZN32pxrInternal_v0_24__pxrReserved__12GfMatrixDataIdLi4ELi4EEixEi(ptr noundef nonnull align 8 dereferenceable(128) %101, i32 noundef 3)
  %103 = getelementptr inbounds double, ptr %102, i64 1
  store double %100, ptr %103, align 8
  %104 = load ptr, ptr %4, align 8
  %105 = getelementptr inbounds [4 x double], ptr %104, i64 3
  %106 = getelementptr inbounds [4 x double], ptr %105, i64 0, i64 2
  %107 = load double, ptr %106, align 8
  %108 = getelementptr inbounds nuw %"class.pxrInternal_v0_24__pxrReserved__::GfMatrix4d", ptr %5, i32 0, i32 0
  %109 = call noundef ptr @_ZN32pxrInternal_v0_24__pxrReserved__12GfMatrixDataIdLi4ELi4EEixEi(ptr noundef nonnull align 8 dereferenceable(128) %108, i32 noundef 3)
  %110 = getelementptr inbounds double, ptr %109, i64 2
  store double %107, ptr %110, align 8
  %111 = load ptr, ptr %4, align 8
  %112 = getelementptr inbounds [4 x double], ptr %111, i64 3
  %113 = getelementptr inbounds [4 x double], ptr %112, i64 0, i64 3
  %114 = load double, ptr %113, align 8
  %115 = getelementptr inbounds nuw %"class.pxrInternal_v0_24__pxrReserved__::GfMatrix4d", ptr %5, i32 0, i32 0
  %116 = call noundef ptr @_ZN32pxrInternal_v0_24__pxrReserved__12GfMatrixDataIdLi4ELi4EEixEi(ptr noundef nonnull align 8 dereferenceable(128) %115, i32 noundef 3)
  %117 = getelementptr inbounds double, ptr %116, i64 3
  store double %114, ptr %117, align 8
  ret ptr %5
}

; Function Attrs: mustprogress nounwind uwtable
define linkonce_odr noundef nonnull align 8 dereferenceable(8) ptr @_ZNKSt6vectorIdSaIdEEixEm(ptr noundef nonnull align 8 dereferenceable(24) %0, i64 noundef %1) #2 comdat align 2 {
  %3 = alloca ptr, align 8
  %4 = alloca i64, align 8
  store ptr %0, ptr %3, align 8
  store i64 %1, ptr %4, align 8
  %5 = load ptr, ptr %3, align 8
  %6 = getelementptr inbounds nuw %"struct.std::_Vector_base.2", ptr %5, i32 0, i32 0
  %7 = getelementptr inbounds nuw %"struct.std::_Vector_base<double, std::allocator<double>>::_Vector_impl_data", ptr %6, i32 0, i32 0
  %8 = load ptr, ptr %7, align 8
  %9 = load i64, ptr %4, align 8
  %10 = getelementptr inbounds double, ptr %8, i64 %9
  ret ptr %10
}

; Function Attrs: mustprogress nounwind uwtable
define linkonce_odr noundef i64 @_ZNKSt6vectorIdSaIdEE4sizeEv(ptr noundef nonnull align 8 dereferenceable(24) %0) #2 comdat align 2 {
  %2 = alloca ptr, align 8
  store ptr %0, ptr %2, align 8
  %3 = load ptr, ptr %2, align 8
  %4 = getelementptr inbounds nuw %"struct.std::_Vector_base.2", ptr %3, i32 0, i32 0
  %5 = getelementptr inbounds nuw %"struct.std::_Vector_base<double, std::allocator<double>>::_Vector_impl_data", ptr %4, i32 0, i32 1
  %6 = load ptr, ptr %5, align 8
  %7 = getelementptr inbounds nuw %"struct.std::_Vector_base.2", ptr %3, i32 0, i32 0
  %8 = getelementptr inbounds nuw %"struct.std::_Vector_base<double, std::allocator<double>>::_Vector_impl_data", ptr %7, i32 0, i32 0
  %9 = load ptr, ptr %8, align 8
  %10 = ptrtoint ptr %6 to i64
  %11 = ptrtoint ptr %9 to i64
  %12 = sub i64 %10, %11
  %13 = sdiv exact i64 %12, 8
  ret i64 %13
}

; Function Attrs: mustprogress nounwind uwtable
define linkonce_odr noundef nonnull align 8 dereferenceable(24) ptr @_ZNKSt6vectorIS_IdSaIdEESaIS1_EEixEm(ptr noundef nonnull align 8 dereferenceable(24) %0, i64 noundef %1) #2 comdat align 2 {
  %3 = alloca ptr, align 8
  %4 = alloca i64, align 8
  store ptr %0, ptr %3, align 8
  store i64 %1, ptr %4, align 8
  %5 = load ptr, ptr %3, align 8
  %6 = getelementptr inbounds nuw %"struct.std::_Vector_base", ptr %5, i32 0, i32 0
  %7 = getelementptr inbounds nuw %"struct.std::_Vector_base<std::vector<double>, std::allocator<std::vector<double>>>::_Vector_impl_data", ptr %6, i32 0, i32 0
  %8 = load ptr, ptr %7, align 8
  %9 = load i64, ptr %4, align 8
  %10 = getelementptr inbounds %"class.std::vector.1", ptr %8, i64 %9
  ret ptr %10
}

; Function Attrs: mustprogress nounwind uwtable
define linkonce_odr noundef i64 @_ZNKSt6vectorIS_IdSaIdEESaIS1_EE4sizeEv(ptr noundef nonnull align 8 dereferenceable(24) %0) #2 comdat align 2 {
  %2 = alloca ptr, align 8
  store ptr %0, ptr %2, align 8
  %3 = load ptr, ptr %2, align 8
  %4 = getelementptr inbounds nuw %"struct.std::_Vector_base", ptr %3, i32 0, i32 0
  %5 = getelementptr inbounds nuw %"struct.std::_Vector_base<std::vector<double>, std::allocator<std::vector<double>>>::_Vector_impl_data", ptr %4, i32 0, i32 1
  %6 = load ptr, ptr %5, align 8
  %7 = getelementptr inbounds nuw %"struct.std::_Vector_base", ptr %3, i32 0, i32 0
  %8 = getelementptr inbounds nuw %"struct.std::_Vector_base<std::vector<double>, std::allocator<std::vector<double>>>::_Vector_impl_data", ptr %7, i32 0, i32 0
  %9 = load ptr, ptr %8, align 8
  %10 = ptrtoint ptr %6 to i64
  %11 = ptrtoint ptr %9 to i64
  %12 = sub i64 %10, %11
  %13 = sdiv exact i64 %12, 24
  ret i64 %13
}

; Function Attrs: mustprogress uwtable
define void @_ZN32pxrInternal_v0_24__pxrReserved__10GfMatrix4dC2ERKSt6vectorIS1_IdSaIdEESaIS3_EE(ptr noundef nonnull align 8 dereferenceable(128) %0, ptr noundef nonnull align 8 dereferenceable(24) %1) unnamed_addr #0 align 2 {
  %3 = alloca ptr, align 8
  %4 = alloca ptr, align 8
  %5 = alloca [4 x [4 x double]], align 16
  %6 = alloca i64, align 8
  %7 = alloca i64, align 8
  store ptr %0, ptr %3, align 8
  store ptr %1, ptr %4, align 8
  %8 = load ptr, ptr %3, align 8
  call void @llvm.memset.p0.i64(ptr align 16 %5, i8 0, i64 128, i1 false)
  %9 = getelementptr inbounds [4 x [4 x double]], ptr %5, i32 0, i32 0
  %10 = getelementptr inbounds [4 x double], ptr %9, i32 0, i32 0
  store double 1.000000e+00, ptr %10, align 16
  %11 = getelementptr inbounds [4 x [4 x double]], ptr %5, i32 0, i32 1
  %12 = getelementptr inbounds [4 x double], ptr %11, i32 0, i32 1
  store double 1.000000e+00, ptr %12, align 8
  %13 = getelementptr inbounds [4 x [4 x double]], ptr %5, i32 0, i32 2
  %14 = getelementptr inbounds [4 x double], ptr %13, i32 0, i32 2
  store double 1.000000e+00, ptr %14, align 16
  %15 = getelementptr inbounds [4 x [4 x double]], ptr %5, i32 0, i32 3
  %16 = getelementptr inbounds [4 x double], ptr %15, i32 0, i32 3
  store double 1.000000e+00, ptr %16, align 8
  store i64 0, ptr %6, align 8
  br label %17

17:                                               ; preds = %55, %2
  %18 = load i64, ptr %6, align 8
  %19 = icmp ult i64 %18, 4
  br i1 %19, label %20, label %25

20:                                               ; preds = %17
  %21 = load i64, ptr %6, align 8
  %22 = load ptr, ptr %4, align 8
  %23 = call noundef i64 @_ZNKSt6vectorIS_IdSaIdEESaIS1_EE4sizeEv(ptr noundef nonnull align 8 dereferenceable(24) %22) #8
  %24 = icmp ult i64 %21, %23
  br label %25

25:                                               ; preds = %20, %17
  %26 = phi i1 [ false, %17 ], [ %24, %20 ]
  br i1 %26, label %27, label %58

27:                                               ; preds = %25
  store i64 0, ptr %7, align 8
  br label %28

28:                                               ; preds = %51, %27
  %29 = load i64, ptr %7, align 8
  %30 = icmp ult i64 %29, 4
  br i1 %30, label %31, label %38

31:                                               ; preds = %28
  %32 = load i64, ptr %7, align 8
  %33 = load ptr, ptr %4, align 8
  %34 = load i64, ptr %6, align 8
  %35 = call noundef nonnull align 8 dereferenceable(24) ptr @_ZNKSt6vectorIS_IdSaIdEESaIS1_EEixEm(ptr noundef nonnull align 8 dereferenceable(24) %33, i64 noundef %34) #8
  %36 = call noundef i64 @_ZNKSt6vectorIdSaIdEE4sizeEv(ptr noundef nonnull align 8 dereferenceable(24) %35) #8
  %37 = icmp ult i64 %32, %36
  br label %38

38:                                               ; preds = %31, %28
  %39 = phi i1 [ false, %28 ], [ %37, %31 ]
  br i1 %39, label %40, label %54

40:                                               ; preds = %38
  %41 = load ptr, ptr %4, align 8
  %42 = load i64, ptr %6, align 8
  %43 = call noundef nonnull align 8 dereferenceable(24) ptr @_ZNKSt6vectorIS_IdSaIdEESaIS1_EEixEm(ptr noundef nonnull align 8 dereferenceable(24) %41, i64 noundef %42) #8
  %44 = load i64, ptr %7, align 8
  %45 = call noundef nonnull align 8 dereferenceable(8) ptr @_ZNKSt6vectorIdSaIdEEixEm(ptr noundef nonnull align 8 dereferenceable(24) %43, i64 noundef %44) #8
  %46 = load double, ptr %45, align 8
  %47 = load i64, ptr %6, align 8
  %48 = getelementptr inbounds [4 x [4 x double]], ptr %5, i64 0, i64 %47
  %49 = load i64, ptr %7, align 8
  %50 = getelementptr inbounds [4 x double], ptr %48, i64 0, i64 %49
  store double %46, ptr %50, align 8
  br label %51

51:                                               ; preds = %40
  %52 = load i64, ptr %7, align 8
  %53 = add i64 %52, 1
  store i64 %53, ptr %7, align 8
  br label %28, !llvm.loop !4

54:                                               ; preds = %38
  br label %55

55:                                               ; preds = %54
  %56 = load i64, ptr %6, align 8
  %57 = add i64 %56, 1
  store i64 %57, ptr %6, align 8
  br label %17, !llvm.loop !6

58:                                               ; preds = %25
  %59 = getelementptr inbounds [4 x [4 x double]], ptr %5, i64 0, i64 0
  %60 = call noundef nonnull align 8 dereferenceable(128) ptr @_ZN32pxrInternal_v0_24__pxrReserved__10GfMatrix4d3SetEPA4_Kd(ptr noundef nonnull align 8 dereferenceable(128) %8, ptr noundef %59)
  ret void
}