; Function Attrs: mustprogress nofree norecurse nosync nounwind memory(read, argmem: readwrite, inaccessiblemem: none) uwtable
define void @_ZN32pxrInternal_v0_24__pxrReserved__10GfMatrix4dC2ERKSt6vectorIS1_IdSaIdEESaIS3_EE(ptr nocapture noundef nonnull writeonly align 8 dereferenceable(128) %0, ptr nocapture noundef nonnull readonly align 8 dereferenceable(24) %1) unnamed_addr #3 align 2 {
  %3 = alloca [4 x [4 x double]], align 16
  call void @llvm.memset.p0.i64(ptr noundef nonnull align 16 dereferenceable(128) %3, i8 0, i64 128, i1 false)
  store double 1.000000e+00, ptr %3, align 16
  %4 = getelementptr inbounds i8, ptr %3, i64 40
  store double 1.000000e+00, ptr %4, align 8
  %5 = getelementptr inbounds i8, ptr %3, i64 80
  store double 1.000000e+00, ptr %5, align 16
  %6 = getelementptr inbounds i8, ptr %3, i64 120
  store double 1.000000e+00, ptr %6, align 8
  %7 = getelementptr inbounds nuw i8, ptr %1, i64 8
  %8 = load ptr, ptr %7, align 8
  %9 = load ptr, ptr %1, align 8
  %10 = ptrtoint ptr %8 to i64
  %11 = ptrtoint ptr %9 to i64
  %12 = sub i64 %10, %11
  %13 = sdiv exact i64 %12, 24
  br label %14

14:                                               ; preds = %2, %.critedge2
  %.01618 = phi i64 [ 0, %2 ], [ %29, %.critedge2 ]
  %exitcond20.not = icmp eq i64 %.01618, %13
  br i1 %exitcond20.not, label %.critedge, label %.preheader

.preheader:                                       ; preds = %14
  %15 = getelementptr inbounds %"class.std::vector.1", ptr %9, i64 %.01618
  %16 = getelementptr inbounds nuw i8, ptr %15, i64 8
  %17 = load ptr, ptr %16, align 8
  %18 = load ptr, ptr %15, align 8
  %19 = ptrtoint ptr %17 to i64
  %20 = ptrtoint ptr %18 to i64
  %21 = sub i64 %19, %20
  %22 = ashr exact i64 %21, 3
  br label %23

23:                                               ; preds = %.preheader, %24
  %.017 = phi i64 [ 0, %.preheader ], [ %28, %24 ]
  %exitcond.not = icmp eq i64 %.017, %22
  br i1 %exitcond.not, label %.critedge2, label %24

24:                                               ; preds = %23
  %25 = getelementptr inbounds double, ptr %18, i64 %.017
  %26 = load double, ptr %25, align 8
  %27 = getelementptr inbounds [4 x [4 x double]], ptr %3, i64 0, i64 %.01618, i64 %.017
  store double %26, ptr %27, align 8
  %28 = add nuw nsw i64 %.017, 1
  %exitcond19.not = icmp eq i64 %28, 4
  br i1 %exitcond19.not, label %.critedge2, label %23, !llvm.loop !4

.critedge2:                                       ; preds = %23, %24
  %29 = add nuw nsw i64 %.01618, 1
  %exitcond21.not = icmp eq i64 %29, 4
  br i1 %exitcond21.not, label %.critedge, label %14, !llvm.loop !6

.critedge:                                        ; preds = %.critedge2, %14
  %30 = load double, ptr %3, align 16
  store double %30, ptr %0, align 8
  %31 = getelementptr inbounds i8, ptr %3, i64 8
  %32 = load double, ptr %31, align 8
  %33 = getelementptr inbounds i8, ptr %0, i64 8
  store double %32, ptr %33, align 8
  %34 = getelementptr inbounds i8, ptr %3, i64 16
  %35 = load double, ptr %34, align 16
  %36 = getelementptr inbounds i8, ptr %0, i64 16
  store double %35, ptr %36, align 8
  %37 = getelementptr inbounds i8, ptr %3, i64 24
  %38 = load double, ptr %37, align 8
  %39 = getelementptr inbounds i8, ptr %0, i64 24
  store double %38, ptr %39, align 8
  %40 = getelementptr inbounds i8, ptr %3, i64 32
  %41 = load double, ptr %40, align 16
  %42 = getelementptr inbounds i8, ptr %0, i64 32
  store double %41, ptr %42, align 8
  %43 = load double, ptr %4, align 8
  %44 = getelementptr inbounds i8, ptr %0, i64 40
  store double %43, ptr %44, align 8
  %45 = getelementptr inbounds i8, ptr %3, i64 48
  %46 = load double, ptr %45, align 16
  %47 = getelementptr inbounds i8, ptr %0, i64 48
  store double %46, ptr %47, align 8
  %48 = getelementptr inbounds i8, ptr %3, i64 56
  %49 = load double, ptr %48, align 8
  %50 = getelementptr inbounds i8, ptr %0, i64 56
  store double %49, ptr %50, align 8
  %51 = getelementptr inbounds i8, ptr %3, i64 64
  %52 = load double, ptr %51, align 16
  %53 = getelementptr inbounds i8, ptr %0, i64 64
  store double %52, ptr %53, align 8
  %54 = getelementptr inbounds i8, ptr %3, i64 72
  %55 = load double, ptr %54, align 8
  %56 = getelementptr inbounds i8, ptr %0, i64 72
  store double %55, ptr %56, align 8
  %57 = load double, ptr %5, align 16
  %58 = getelementptr inbounds i8, ptr %0, i64 80
  store double %57, ptr %58, align 8
  %59 = getelementptr inbounds i8, ptr %3, i64 88
  %60 = load double, ptr %59, align 8
  %61 = getelementptr inbounds i8, ptr %0, i64 88
  store double %60, ptr %61, align 8
  %62 = getelementptr inbounds i8, ptr %3, i64 96
  %63 = load double, ptr %62, align 16
  %64 = getelementptr inbounds i8, ptr %0, i64 96
  store double %63, ptr %64, align 8
  %65 = getelementptr inbounds i8, ptr %3, i64 104
  %66 = load double, ptr %65, align 8
  %67 = getelementptr inbounds i8, ptr %0, i64 104
  store double %66, ptr %67, align 8
  %68 = getelementptr inbounds i8, ptr %3, i64 112
  %69 = load double, ptr %68, align 16
  %70 = getelementptr inbounds i8, ptr %0, i64 112
  store double %69, ptr %70, align 8
  %71 = load double, ptr %6, align 8
  %72 = getelementptr inbounds i8, ptr %0, i64 120
  store double %71, ptr %72, align 8
  ret void
}